(dp0
S'name'
p1
VPiHalf_BCompz_RFAnt4_resonance
p2
sS'colsize'
p3
(dp4
S'syerr H'
p5
I50
sS'm4x H'
p6
I50
sS'Nerr H'
p7
I50
sS'N V'
p8
I50
sS'dynamic'
p9
I50
sS'Filename'
p10
I50
sS'myerr H'
p11
I50
sS'N H'
p12
I50
sS'Nerr V'
p13
I50
sS'm4x V'
p14
I50
sS'syerr V'
p15
I50
sS's1y H'
p16
I50
sS'm2y V'
p17
I50
sS'rxerr H'
p18
I50
sS'N2 V'
p19
I50
sS'N2 H'
p20
I50
sS'rxerr V'
p21
I50
sS's1y V'
p22
I50
sS'm2y H'
p23
I50
sS'my H'
p24
I50
sS'Nbec V'
p25
I50
sS'sx H'
p26
I50
sS'Omit'
p27
I30
sS'N3 H'
p28
I50
sS'N3 V'
p29
I50
sS'Mark2'
p30
I50
sS'Mark3'
p31
I50
sS'Nbec H'
p32
I50
sS'sx V'
p33
I50
sS'my V'
p34
I50
sS'FileID'
p35
I50
sS'params H'
p36
I50
sS'ryerr H'
p37
I50
sS'T1err V'
p38
I50
sS'T1err H'
p39
I50
sS'params V'
p40
I50
sS'ryerr V'
p41
I50
sS'OD V'
p42
I50
sS'm5y H'
p43
I50
sS's2yerr V'
p44
I50
sS'm4y H'
p45
I50
sS'Mark'
p46
I50
sS'm4y V'
p47
I50
sS'm5y V'
p48
I50
sS's2yerr H'
p49
I50
sS'OD H'
p50
I50
sS'N0 H'
p51
I50
sS'm5yerr H'
p52
I50
sS's1x H'
p53
I50
sS'sigma H'
p54
I50
sS'sigma V'
p55
I50
sS'm5yerr V'
p56
I50
sS's1x V'
p57
I50
sS'dynamic 2'
p58
I50
sS'dynamic 3'
p59
I50
sS'dynamic 4'
p60
I50
sS'T V'
p61
I50
sS'resid H'
p62
I50
sS'sy H'
p63
I50
sS'm4yerr H'
p64
I50
sS'sxerr H'
p65
I50
sS'sy V'
p66
I50
sS'sxerr V'
p67
I50
sS'resid V'
p68
I50
sS'T H'
p69
I50
sS's2x H'
p70
I50
sS's2x V'
p71
I50
sS'm4yerr V'
p72
I50
sS'T1 V'
p73
I50
sS'user4'
p74
I50
sS'm3yerr V'
p75
I50
sS'T1 H'
p76
I50
sS's1yerr H'
p77
I50
sS's2xerr H'
p78
I50
sS'rx V'
p79
I50
sS'rx H'
p80
I50
sS's2xerr V'
p81
I50
sS's1yerr V'
p82
I50
sS'm1y V'
p83
I50
sS'N1 V'
p84
I50
sS'myerr V'
p85
I50
sS's2y V'
p86
I50
sS's2y H'
p87
I50
sS'm1yerr H'
p88
I50
sS'm1y H'
p89
I50
sS'N1 H'
p90
I50
sS'm3y H'
p91
I50
sS'm1xerr H'
p92
I50
sS'N5 V'
p93
I50
sS'm5xerr H'
p94
I50
sS'ODerr V'
p95
I50
sS'm5x V'
p96
I50
sS'm5x H'
p97
I50
sS'm5xerr V'
p98
I50
sS'N5 H'
p99
I50
sS'm1xerr V'
p100
I50
sS'm3y V'
p101
I50
sS'm4xerr H'
p102
I50
sS'user5'
p103
I50
sS'user2'
p104
I50
sS'user3'
p105
I50
sS'mxerr V'
p106
I50
sS'mxerr H'
p107
I50
sS'm3xerr V'
p108
I50
sS'm4xerr V'
p109
I50
sS'm1yerr V'
p110
I50
sS'm3xerr H'
p111
I50
sS'm2xerr V'
p112
I50
sS'm2x V'
p113
I50
sS'm2yerr H'
p114
I50
sS'm2yerr V'
p115
I50
sS'm2x H'
p116
I50
sS'm2xerr H'
p117
I50
sS'ry H'
p118
I50
sS'mx V'
p119
I50
sS'm3yerr H'
p120
I50
sS'm1x H'
p121
I50
sS'Terr H'
p122
I50
sS'Terr V'
p123
I50
sS'user'
p124
I103
sS'N0 V'
p125
I50
sS'm1x V'
p126
I50
sS'mx H'
p127
I50
sS'N4 H'
p128
I50
sS'Remark'
p129
I200
sS'm3x H'
p130
I50
sS's1xerr H'
p131
I50
sS'Nth H'
p132
I50
sS'Nth V'
p133
I50
sS's1xerr V'
p134
I50
sS'm3x V'
p135
I50
sS'N4 V'
p136
I50
sS'ry V'
p137
I50
ssS'dynamic_expressions'
p138
(lp139
S''
p140
ag140
ag140
ag140
asS'colsel'
p141
(lp142
g35
ag12
ag50
ag26
ag63
ag80
ag118
ag127
ag24
ag69
ag8
ag42
ag33
ag66
ag79
ag137
ag61
ag9
ag58
ag124
ag104
ag105
ag27
ag129
asS'column_labels_custom'
p143
(dp144
g124
VDAC BCompZ
p145
ssS'marks'
p146
(dp147
S'Y1'
p148
(lp149
g12
asS'X'
p150
(lp151
g124
asS'Y2'
p152
(lp153
sS'G'
p154
(lp155
ss.